; Function Attrs: null_pointer_is_valid sspstrong uwtable
define internal i32 @dissect_gsm_ec_rlcmac_uplink(ptr noundef %0, ptr noundef %1, ptr noundef %2, ptr readnone captures(none) %3) #0 {
  %5 = alloca %struct.RlcMacPrivateData_t, align 4
  call void @llvm.lifetime.start.p0(i64 28, ptr nonnull %5) #8
  store i32 1735422579, ptr %5, align 4
  %6 = getelementptr inbounds nuw i8, ptr %5, i64 4
  store i32 64, ptr %6, align 4
  %7 = getelementptr inbounds nuw i8, ptr %5, i64 16
  store i32 0, ptr %7, align 4
  %8 = call i32 @dissect_gsm_rlcmac_uplink(ptr noundef %0, ptr noundef %1, ptr noundef %2, ptr noundef nonnull %5)
  call void @llvm.lifetime.end.p0(i64 28, ptr nonnull %5) #8
  ret i32 %8
}